target datalayout = "e-m:e-p270:32:32-p271:32:32-p272:64:64-i64:64-i128:128-f80:128-n8:16:32:64-S128"
target triple = "x86_64-unknown-linux-gnu"

%"class.rocksdb::Slice" = type { ptr, i64 }
%"class.rocksdb::(anonymous namespace)::SkipListRep" = type { %"class.rocksdb::MemTableRep", %"class.rocksdb::InlineSkipList", ptr, ptr, i64 }
%"class.rocksdb::MemTableRep" = type { ptr, ptr }
%"class.rocksdb::InlineSkipList" = type { i16, i16, i32, ptr, ptr, ptr, %"struct.std::atomic", ptr }
%"struct.std::atomic" = type { %"struct.std::__atomic_base" }
%"struct.std::__atomic_base" = type { i32 }
%"struct.rocksdb::InlineSkipList<const rocksdb::MemTableRep::KeyComparator &>::Node" = type { [1 x %"struct.std::atomic.29"] }
%"struct.std::atomic.29" = type { %"struct.std::__atomic_base.30" }
%"struct.std::__atomic_base.30" = type { ptr }

; Function Attrs: mustprogress nounwind uwtable
define linkonce_odr noundef ptr @_ZNKSt6atomicIPN7rocksdb14InlineSkipListIRKNS0_11MemTableRep13KeyComparatorEE4NodeEE4loadESt12memory_order(ptr noundef nonnull align 8 dereferenceable(8) %this, i32 noundef %__m) #1 comdat align 2 {
entry:
  %this.addr.i = alloca ptr, align 8
  %__m.addr.i = alloca i32, align 4
  %__b.i = alloca i32, align 4
  %atomic-temp.i = alloca ptr, align 8
  %this.addr = alloca ptr, align 8
  %__m.addr = alloca i32, align 4
  store ptr %this, ptr %this.addr, align 8
  store i32 %__m, ptr %__m.addr, align 4
  %this1 = load ptr, ptr %this.addr, align 8
  %_M_b = getelementptr inbounds %"struct.std::atomic.29", ptr %this1, i32 0, i32 0
  %0 = load i32, ptr %__m.addr, align 4
  store ptr %_M_b, ptr %this.addr.i, align 8
  store i32 %0, ptr %__m.addr.i, align 4
  %this1.i = load ptr, ptr %this.addr.i, align 8
  %1 = load i32, ptr %__m.addr.i, align 4
  %call.i = call noundef i32 @_ZStanSt12memory_orderSt23__memory_order_modifier(i32 noundef %1, i32 noundef 65535)
  store i32 %call.i, ptr %__b.i, align 4
  %2 = load i32, ptr %__m.addr.i, align 4
  switch i32 %2, label %monotonic.i [
    i32 1, label %acquire.i
    i32 2, label %acquire.i
    i32 5, label %seqcst.i
  ]

monotonic.i:                                      ; preds = %entry
  %3 = load atomic i64, ptr %this1.i monotonic, align 8
  store i64 %3, ptr %atomic-temp.i, align 8
  br label %_ZNKSt13__atomic_baseIPN7rocksdb14InlineSkipListIRKNS0_11MemTableRep13KeyComparatorEE4NodeEE4loadESt12memory_order.exit

acquire.i:                                        ; preds = %entry, %entry
  %4 = load atomic i64, ptr %this1.i acquire, align 8
  store i64 %4, ptr %atomic-temp.i, align 8
  br label %_ZNKSt13__atomic_baseIPN7rocksdb14InlineSkipListIRKNS0_11MemTableRep13KeyComparatorEE4NodeEE4loadESt12memory_order.exit

seqcst.i:                                         ; preds = %entry
  %5 = load atomic i64, ptr %this1.i seq_cst, align 8
  store i64 %5, ptr %atomic-temp.i, align 8
  br label %_ZNKSt13__atomic_baseIPN7rocksdb14InlineSkipListIRKNS0_11MemTableRep13KeyComparatorEE4NodeEE4loadESt12memory_order.exit

_ZNKSt13__atomic_baseIPN7rocksdb14InlineSkipListIRKNS0_11MemTableRep13KeyComparatorEE4NodeEE4loadESt12memory_order.exit: ; preds = %seqcst.i, %acquire.i, %monotonic.i
  %6 = load ptr, ptr %atomic-temp.i, align 8
  ret ptr %6
}

; Function Attrs: mustprogress nounwind uwtable
define linkonce_odr noundef i32 @_ZStanSt12memory_orderSt23__memory_order_modifier(i32 noundef %__m, i32 noundef %__mod) #1 comdat {
entry:
  %__m.addr = alloca i32, align 4
  %__mod.addr = alloca i32, align 4
  store i32 %__m, ptr %__m.addr, align 4
  store i32 %__mod, ptr %__mod.addr, align 4
  %0 = load i32, ptr %__m.addr, align 4
  %1 = load i32, ptr %__mod.addr, align 4
  %and = and i32 %0, %1
  ret i32 %and
}

; Function Attrs: mustprogress nounwind uwtable
define linkonce_odr noundef ptr @_ZN7rocksdb14InlineSkipListIRKNS_11MemTableRep13KeyComparatorEE4Node4NextEi(ptr noundef nonnull align 8 dereferenceable(8) %this, i32 noundef %n) #1 comdat align 2 {
entry:
  %this.addr = alloca ptr, align 8
  %n.addr = alloca i32, align 4
  store ptr %this, ptr %this.addr, align 8
  store i32 %n, ptr %n.addr, align 4
  %this1 = load ptr, ptr %this.addr, align 8
  %next_ = getelementptr inbounds %"struct.rocksdb::InlineSkipList<const rocksdb::MemTableRep::KeyComparator &>::Node", ptr %this1, i32 0, i32 0
  %arrayidx = getelementptr inbounds [1 x %"struct.std::atomic.29"], ptr %next_, i64 0, i64 0
  %0 = load i32, ptr %n.addr, align 4
  %idx.ext = sext i32 %0 to i64
  %idx.neg = sub i64 0, %idx.ext
  %add.ptr = getelementptr inbounds %"struct.std::atomic.29", ptr %arrayidx, i64 %idx.neg
  %call = call noundef ptr @_ZNKSt6atomicIPN7rocksdb14InlineSkipListIRKNS0_11MemTableRep13KeyComparatorEE4NodeEE4loadESt12memory_order(ptr noundef nonnull align 8 dereferenceable(8) %add.ptr, i32 noundef 2) #3
  ret ptr %call
}

; Function Attrs: mustprogress nounwind uwtable
define linkonce_odr noundef i32 @_ZNK7rocksdb14InlineSkipListIRKNS_11MemTableRep13KeyComparatorEE12GetMaxHeightEv(ptr noundef nonnull align 8 dereferenceable(48) %this) #1 comdat align 2 {
entry:
  %this.addr.i = alloca ptr, align 8
  %__m.addr.i = alloca i32, align 4
  %__b.i = alloca i32, align 4
  %atomic-temp.i = alloca i32, align 4
  %this.addr = alloca ptr, align 8
  store ptr %this, ptr %this.addr, align 8
  %this1 = load ptr, ptr %this.addr, align 8
  %max_height_ = getelementptr inbounds %"class.rocksdb::InlineSkipList", ptr %this1, i32 0, i32 6
  store ptr %max_height_, ptr %this.addr.i, align 8
  store i32 0, ptr %__m.addr.i, align 4
  %this1.i = load ptr, ptr %this.addr.i, align 8
  %0 = load i32, ptr %__m.addr.i, align 4
  %call.i = call noundef i32 @_ZStanSt12memory_orderSt23__memory_order_modifier(i32 noundef %0, i32 noundef 65535)
  store i32 %call.i, ptr %__b.i, align 4
  %1 = load i32, ptr %__m.addr.i, align 4
  switch i32 %1, label %monotonic.i [
    i32 1, label %acquire.i
    i32 2, label %acquire.i
    i32 5, label %seqcst.i
  ]

monotonic.i:                                      ; preds = %entry
  %2 = load atomic i32, ptr %this1.i monotonic, align 4
  store i32 %2, ptr %atomic-temp.i, align 4
  br label %_ZNKSt13__atomic_baseIiE4loadESt12memory_order.exit

acquire.i:                                        ; preds = %entry, %entry
  %3 = load atomic i32, ptr %this1.i acquire, align 4
  store i32 %3, ptr %atomic-temp.i, align 4
  br label %_ZNKSt13__atomic_baseIiE4loadESt12memory_order.exit

seqcst.i:                                         ; preds = %entry
  %4 = load atomic i32, ptr %this1.i seq_cst, align 4
  store i32 %4, ptr %atomic-temp.i, align 4
  br label %_ZNKSt13__atomic_baseIiE4loadESt12memory_order.exit

_ZNKSt13__atomic_baseIiE4loadESt12memory_order.exit: ; preds = %seqcst.i, %acquire.i, %monotonic.i
  %5 = load i32, ptr %atomic-temp.i, align 4
  ret i32 %5
}

; Function Attrs: mustprogress uwtable
define linkonce_odr noundef zeroext i1 @_ZNK7rocksdb14InlineSkipListIRKNS_11MemTableRep13KeyComparatorEE5EqualEPKcS7_(ptr noundef nonnull align 8 dereferenceable(48) %this, ptr noundef %a, ptr noundef %b) #0 comdat align 2 {
entry:
  %this.addr = alloca ptr, align 8
  %a.addr = alloca ptr, align 8
  %b.addr = alloca ptr, align 8
  store ptr %this, ptr %this.addr, align 8
  store ptr %a, ptr %a.addr, align 8
  store ptr %b, ptr %b.addr, align 8
  %this1 = load ptr, ptr %this.addr, align 8
  %compare_ = getelementptr inbounds %"class.rocksdb::InlineSkipList", ptr %this1, i32 0, i32 4
  %0 = load ptr, ptr %compare_, align 8
  %1 = load ptr, ptr %a.addr, align 8
  %2 = load ptr, ptr %b.addr, align 8
  %vtable = load ptr, ptr %0, align 8
  %vfn = getelementptr inbounds ptr, ptr %vtable, i64 1
  %3 = load ptr, ptr %vfn, align 8
  %call = call noundef i32 %3(ptr noundef nonnull align 8 dereferenceable(8) %0, ptr noundef %1, ptr noundef %2)
  %cmp = icmp eq i32 %call, 0
  ret i1 %cmp
}

; Function Attrs: mustprogress nounwind uwtable
define linkonce_odr noundef ptr @_ZNK7rocksdb14InlineSkipListIRKNS_11MemTableRep13KeyComparatorEE4Node3KeyEv(ptr noundef nonnull align 8 dereferenceable(8) %this) #1 comdat align 2 {
entry:
  %this.addr = alloca ptr, align 8
  store ptr %this, ptr %this.addr, align 8
  %this1 = load ptr, ptr %this.addr, align 8
  %next_ = getelementptr inbounds %"struct.rocksdb::InlineSkipList<const rocksdb::MemTableRep::KeyComparator &>::Node", ptr %this1, i32 0, i32 0
  %arrayidx = getelementptr inbounds [1 x %"struct.std::atomic.29"], ptr %next_, i64 0, i64 1
  ret ptr %arrayidx
}

; Function Attrs: mustprogress uwtable
define linkonce_odr noundef ptr @_ZNK7rocksdb14InlineSkipListIRKNS_11MemTableRep13KeyComparatorEE18FindGreaterOrEqualEPKc(ptr noundef nonnull align 8 dereferenceable(48) %this, ptr noundef %key) #0 comdat align 2 {
entry:
  %this.addr = alloca ptr, align 8
  %key.addr = alloca ptr, align 8
  %x = alloca ptr, align 8
  %level = alloca i32, align 4
  %last_bigger = alloca ptr, align 8
  %key_decoded = alloca %"class.rocksdb::Slice", align 8
  %next = alloca ptr, align 8
  %cmp5 = alloca i32, align 4
  store ptr %this, ptr %this.addr, align 8
  store ptr %key, ptr %key.addr, align 8
  %this1 = load ptr, ptr %this.addr, align 8
  %head_ = getelementptr inbounds %"class.rocksdb::InlineSkipList", ptr %this1, i32 0, i32 5
  %0 = load ptr, ptr %head_, align 8
  store ptr %0, ptr %x, align 8
  %call = call noundef i32 @_ZNK7rocksdb14InlineSkipListIRKNS_11MemTableRep13KeyComparatorEE12GetMaxHeightEv(ptr noundef nonnull align 8 dereferenceable(48) %this1)
  %sub = sub nsw i32 %call, 1
  store i32 %sub, ptr %level, align 4
  store ptr null, ptr %last_bigger, align 8
  %compare_ = getelementptr inbounds %"class.rocksdb::InlineSkipList", ptr %this1, i32 0, i32 4
  %1 = load ptr, ptr %compare_, align 8
  %2 = load ptr, ptr %key.addr, align 8
  %vtable = load ptr, ptr %1, align 8
  %vfn = getelementptr inbounds ptr, ptr %vtable, i64 0
  %3 = load ptr, ptr %vfn, align 8
  %call2 = call { ptr, i64 } %3(ptr noundef nonnull align 8 dereferenceable(8) %1, ptr noundef %2)
  %4 = getelementptr inbounds { ptr, i64 }, ptr %key_decoded, i32 0, i32 0
  %5 = extractvalue { ptr, i64 } %call2, 0
  store ptr %5, ptr %4, align 8
  %6 = getelementptr inbounds { ptr, i64 }, ptr %key_decoded, i32 0, i32 1
  %7 = extractvalue { ptr, i64 } %call2, 1
  store i64 %7, ptr %6, align 8
  br label %while.body

while.body:                                       ; preds = %if.end22, %entry
  %8 = load ptr, ptr %x, align 8
  %9 = load i32, ptr %level, align 4
  %call3 = call noundef ptr @_ZN7rocksdb14InlineSkipListIRKNS_11MemTableRep13KeyComparatorEE4Node4NextEi(ptr noundef nonnull align 8 dereferenceable(8) %8, i32 noundef %9)
  store ptr %call3, ptr %next, align 8
  %10 = load ptr, ptr %next, align 8
  %cmp = icmp ne ptr %10, null
  br i1 %cmp, label %if.then, label %if.end

if.then:                                          ; preds = %while.body
  %11 = load ptr, ptr %next, align 8
  %12 = load i32, ptr %level, align 4
  %call4 = call noundef ptr @_ZN7rocksdb14InlineSkipListIRKNS_11MemTableRep13KeyComparatorEE4Node4NextEi(ptr noundef nonnull align 8 dereferenceable(8) %11, i32 noundef %12)
  call void @llvm.prefetch.p0(ptr %call4, i32 0, i32 1, i32 1)
  br label %if.end

if.end:                                           ; preds = %if.then, %while.body
  %13 = load ptr, ptr %next, align 8
  %cmp6 = icmp eq ptr %13, null
  br i1 %cmp6, label %cond.true, label %lor.lhs.false

lor.lhs.false:                                    ; preds = %if.end
  %14 = load ptr, ptr %next, align 8
  %15 = load ptr, ptr %last_bigger, align 8
  %cmp7 = icmp eq ptr %14, %15
  br i1 %cmp7, label %cond.true, label %cond.false

cond.true:                                        ; preds = %lor.lhs.false, %if.end
  br label %cond.end

cond.false:                                       ; preds = %lor.lhs.false
  %compare_8 = getelementptr inbounds %"class.rocksdb::InlineSkipList", ptr %this1, i32 0, i32 4
  %16 = load ptr, ptr %compare_8, align 8
  %17 = load ptr, ptr %next, align 8
  %call9 = call noundef ptr @_ZNK7rocksdb14InlineSkipListIRKNS_11MemTableRep13KeyComparatorEE4Node3KeyEv(ptr noundef nonnull align 8 dereferenceable(8) %17)
  %vtable10 = load ptr, ptr %16, align 8
  %vfn11 = getelementptr inbounds ptr, ptr %vtable10, i64 2
  %18 = load ptr, ptr %vfn11, align 8
  %call12 = call noundef i32 %18(ptr noundef nonnull align 8 dereferenceable(8) %16, ptr noundef %call9, ptr noundef nonnull align 8 dereferenceable(16) %key_decoded)
  br label %cond.end

cond.end:                                         ; preds = %cond.false, %cond.true
  %cond = phi i32 [ 1, %cond.true ], [ %call12, %cond.false ]
  store i32 %cond, ptr %cmp5, align 4
  %19 = load i32, ptr %cmp5, align 4
  %cmp13 = icmp eq i32 %19, 0
  br i1 %cmp13, label %if.then17, label %lor.lhs.false14

lor.lhs.false14:                                  ; preds = %cond.end
  %20 = load i32, ptr %cmp5, align 4
  %cmp15 = icmp sgt i32 %20, 0
  br i1 %cmp15, label %land.lhs.true, label %if.else

land.lhs.true:                                    ; preds = %lor.lhs.false14
  %21 = load i32, ptr %level, align 4
  %cmp16 = icmp eq i32 %21, 0
  br i1 %cmp16, label %if.then17, label %if.else

if.then17:                                        ; preds = %land.lhs.true, %cond.end
  %22 = load ptr, ptr %next, align 8
  ret ptr %22

if.else:                                          ; preds = %land.lhs.true, %lor.lhs.false14
  %23 = load i32, ptr %cmp5, align 4
  %cmp18 = icmp slt i32 %23, 0
  br i1 %cmp18, label %if.then19, label %if.else20

if.then19:                                        ; preds = %if.else
  %24 = load ptr, ptr %next, align 8
  store ptr %24, ptr %x, align 8
  br label %if.end21

if.else20:                                        ; preds = %if.else
  %25 = load ptr, ptr %next, align 8
  store ptr %25, ptr %last_bigger, align 8
  %26 = load i32, ptr %level, align 4
  %dec = add nsw i32 %26, -1
  store i32 %dec, ptr %level, align 4
  br label %if.end21

if.end21:                                         ; preds = %if.else20, %if.then19
  br label %if.end22

if.end22:                                         ; preds = %if.end21
  br label %while.body, !llvm.loop !33
}

; Function Attrs: mustprogress uwtable
define linkonce_odr noundef zeroext i1 @_ZNK7rocksdb14InlineSkipListIRKNS_11MemTableRep13KeyComparatorEE8ContainsEPKc(ptr noundef nonnull align 8 dereferenceable(48) %this, ptr noundef %key) #0 comdat align 2 {
entry:
  %retval = alloca i1, align 1
  %this.addr = alloca ptr, align 8
  %key.addr = alloca ptr, align 8
  %x = alloca ptr, align 8
  store ptr %this, ptr %this.addr, align 8
  store ptr %key, ptr %key.addr, align 8
  %this1 = load ptr, ptr %this.addr, align 8
  %0 = load ptr, ptr %key.addr, align 8
  %call = call noundef ptr @_ZNK7rocksdb14InlineSkipListIRKNS_11MemTableRep13KeyComparatorEE18FindGreaterOrEqualEPKc(ptr noundef nonnull align 8 dereferenceable(48) %this1, ptr noundef %0)
  store ptr %call, ptr %x, align 8
  %1 = load ptr, ptr %x, align 8
  %cmp = icmp ne ptr %1, null
  br i1 %cmp, label %land.lhs.true, label %if.else

land.lhs.true:                                    ; preds = %entry
  %2 = load ptr, ptr %key.addr, align 8
  %3 = load ptr, ptr %x, align 8
  %call2 = call noundef ptr @_ZNK7rocksdb14InlineSkipListIRKNS_11MemTableRep13KeyComparatorEE4Node3KeyEv(ptr noundef nonnull align 8 dereferenceable(8) %3)
  %call3 = call noundef zeroext i1 @_ZNK7rocksdb14InlineSkipListIRKNS_11MemTableRep13KeyComparatorEE5EqualEPKcS7_(ptr noundef nonnull align 8 dereferenceable(48) %this1, ptr noundef %2, ptr noundef %call2)
  br i1 %call3, label %if.then, label %if.else

if.then:                                          ; preds = %land.lhs.true
  store i1 true, ptr %retval, align 1
  br label %return

if.else:                                          ; preds = %land.lhs.true, %entry
  store i1 false, ptr %retval, align 1
  br label %return

return:                                           ; preds = %if.else, %if.then
  %4 = load i1, ptr %retval, align 1
  ret i1 %4
}

; Function Attrs: mustprogress uwtable
define internal noundef zeroext i1 @_ZNK7rocksdb12_GLOBAL__N_111SkipListRep8ContainsEPKc(ptr noundef nonnull align 8 dereferenceable(88) %this, ptr noundef %key) unnamed_addr #0 align 2 {
entry:
  %this.addr = alloca ptr, align 8
  %key.addr = alloca ptr, align 8
  store ptr %this, ptr %this.addr, align 8
  store ptr %key, ptr %key.addr, align 8
  %this1 = load ptr, ptr %this.addr, align 8
  %skip_list_ = getelementptr inbounds %"class.rocksdb::(anonymous namespace)::SkipListRep", ptr %this1, i32 0, i32 1
  %0 = load ptr, ptr %key.addr, align 8
  %call = call noundef zeroext i1 @_ZNK7rocksdb14InlineSkipListIRKNS_11MemTableRep13KeyComparatorEE8ContainsEPKc(ptr noundef nonnull align 8 dereferenceable(48) %skip_list_, ptr noundef %0)
  ret i1 %call
}