; Function Attrs: mustprogress uwtable
define internal noundef zeroext i1 @_ZNK7rocksdb12_GLOBAL__N_111SkipListRep8ContainsEPKc(ptr nocapture noundef nonnull readonly align 8 dereferenceable(88) %this, ptr noundef %key) unnamed_addr #3 align 2 {
entry:
  %key_decoded.i.i = alloca %"class.rocksdb::Slice", align 8
  call void @llvm.lifetime.start.p0(i64 16, ptr nonnull %key_decoded.i.i)
  %head_.i.i = getelementptr inbounds i8, ptr %this, i64 40
  %0 = load ptr, ptr %head_.i.i, align 8
  %max_height_.i.i.i = getelementptr inbounds i8, ptr %this, i64 48
  %1 = load atomic i32, ptr %max_height_.i.i.i monotonic, align 8
  %sub.i.i = add nsw i32 %1, -1
  %compare_.i.i = getelementptr inbounds i8, ptr %this, i64 32
  %2 = load ptr, ptr %compare_.i.i, align 8
  %vtable.i.i = load ptr, ptr %2, align 8
  %3 = load ptr, ptr %vtable.i.i, align 8
  %call2.i.i = tail call { ptr, i64 } %3(ptr noundef nonnull align 8 dereferenceable(8) %2, ptr noundef %key)
  %4 = extractvalue { ptr, i64 } %call2.i.i, 0
  store ptr %4, ptr %key_decoded.i.i, align 8
  %5 = getelementptr inbounds i8, ptr %key_decoded.i.i, i64 8
  %6 = extractvalue { ptr, i64 } %call2.i.i, 1
  store i64 %6, ptr %5, align 8
  br label %while.body.i.i

while.body.i.i:                                   ; preds = %if.else.i.i, %entry
  %last_bigger.0.i.i = phi ptr [ null, %entry ], [ %last_bigger.1.i.i, %if.else.i.i ]
  %level.0.i.i = phi i32 [ %sub.i.i, %entry ], [ %level.1.i.i, %if.else.i.i ]
  %x.0.i.i = phi ptr [ %0, %entry ], [ %x.1.i.i, %if.else.i.i ]
  %idx.ext.i.i.i = sext i32 %level.0.i.i to i64
  %idx.neg.i.i.i = sub nsw i64 0, %idx.ext.i.i.i
  %add.ptr.i.i.i = getelementptr inbounds %"struct.std::atomic.29", ptr %x.0.i.i, i64 %idx.neg.i.i.i
  %7 = load atomic i64, ptr %add.ptr.i.i.i acquire, align 8
  %atomic-temp.i.0.i.i.i.i = inttoptr i64 %7 to ptr
  %cond14.i.i = icmp eq i64 %7, 0
  br i1 %cond14.i.i, label %lor.lhs.false14.i.thread.i, label %if.then.i.i

if.then.i.i:                                      ; preds = %while.body.i.i
  %add.ptr.i17.i.i = getelementptr inbounds %"struct.std::atomic.29", ptr %atomic-temp.i.0.i.i.i.i, i64 %idx.neg.i.i.i
  %8 = load atomic i64, ptr %add.ptr.i17.i.i acquire, align 8
  %atomic-temp.i.0.i.i18.i.i = inttoptr i64 %8 to ptr
  call void @llvm.prefetch.p0(ptr %atomic-temp.i.0.i.i18.i.i, i32 0, i32 1, i32 1)
  %cmp7.i.i = icmp eq ptr %last_bigger.0.i.i, %atomic-temp.i.0.i.i.i.i
  br i1 %cmp7.i.i, label %lor.lhs.false14.i.i, label %cond.end.i.i

cond.end.i.i:                                     ; preds = %if.then.i.i
  %9 = load ptr, ptr %compare_.i.i, align 8
  %arrayidx.i.i.i = getelementptr inbounds i8, ptr %atomic-temp.i.0.i.i.i.i, i64 8
  %vtable10.i.i = load ptr, ptr %9, align 8
  %vfn11.i.i = getelementptr inbounds i8, ptr %vtable10.i.i, i64 16
  %10 = load ptr, ptr %vfn11.i.i, align 8
  %call12.i.i = call noundef i32 %10(ptr noundef nonnull align 8 dereferenceable(8) %9, ptr noundef nonnull %arrayidx.i.i.i, ptr noundef nonnull align 8 dereferenceable(16) %key_decoded.i.i)
  %cmp13.i.i = icmp eq i32 %call12.i.i, 0
  br i1 %cmp13.i.i, label %_ZNK7rocksdb14InlineSkipListIRKNS_11MemTableRep13KeyComparatorEE18FindGreaterOrEqualEPKc.exit.thread.i, label %lor.lhs.false14.i.i

_ZNK7rocksdb14InlineSkipListIRKNS_11MemTableRep13KeyComparatorEE18FindGreaterOrEqualEPKc.exit.thread.i: ; preds = %cond.end.i.i
  call void @llvm.lifetime.end.p0(i64 16, ptr nonnull %key_decoded.i.i)
  br label %land.lhs.true.i

lor.lhs.false14.i.i:                              ; preds = %cond.end.i.i, %if.then.i.i
  %cond21.i.i = phi i32 [ %call12.i.i, %cond.end.i.i ], [ 1, %if.then.i.i ]
  %cmp15.i.i = icmp sgt i32 %cond21.i.i, 0
  %cmp16.i.i = icmp eq i32 %level.0.i.i, 0
  %or.cond.i.i = and i1 %cmp16.i.i, %cmp15.i.i
  br i1 %or.cond.i.i, label %_ZNK7rocksdb14InlineSkipListIRKNS_11MemTableRep13KeyComparatorEE18FindGreaterOrEqualEPKc.exit.i, label %if.else.i.i

lor.lhs.false14.i.thread.i:                       ; preds = %while.body.i.i
  %cmp16.i14.i = icmp eq i32 %level.0.i.i, 0
  br i1 %cmp16.i14.i, label %_ZNK7rocksdb14InlineSkipListIRKNS_11MemTableRep13KeyComparatorEE18FindGreaterOrEqualEPKc.exit.thread17.i, label %if.else.i.i

_ZNK7rocksdb14InlineSkipListIRKNS_11MemTableRep13KeyComparatorEE18FindGreaterOrEqualEPKc.exit.thread17.i: ; preds = %lor.lhs.false14.i.thread.i
  call void @llvm.lifetime.end.p0(i64 16, ptr nonnull %key_decoded.i.i)
  br label %if.else.i

if.else.i.i:                                      ; preds = %lor.lhs.false14.i.thread.i, %lor.lhs.false14.i.i
  %cond21.i16.i = phi i32 [ 1, %lor.lhs.false14.i.thread.i ], [ %cond21.i.i, %lor.lhs.false14.i.i ]
  %cmp18.i.i = icmp sgt i32 %cond21.i16.i, -1
  %last_bigger.1.i.i = select i1 %cmp18.i.i, ptr %atomic-temp.i.0.i.i.i.i, ptr %last_bigger.0.i.i
  %dec.i.i = sext i1 %cmp18.i.i to i32
  %level.1.i.i = add nsw i32 %level.0.i.i, %dec.i.i
  %x.1.i.i = select i1 %cmp18.i.i, ptr %x.0.i.i, ptr %atomic-temp.i.0.i.i.i.i
  br label %while.body.i.i, !llvm.loop !11

_ZNK7rocksdb14InlineSkipListIRKNS_11MemTableRep13KeyComparatorEE18FindGreaterOrEqualEPKc.exit.i: ; preds = %lor.lhs.false14.i.i
  call void @llvm.lifetime.end.p0(i64 16, ptr nonnull %key_decoded.i.i)
  br label %land.lhs.true.i

land.lhs.true.i:                                  ; preds = %_ZNK7rocksdb14InlineSkipListIRKNS_11MemTableRep13KeyComparatorEE18FindGreaterOrEqualEPKc.exit.i, %_ZNK7rocksdb14InlineSkipListIRKNS_11MemTableRep13KeyComparatorEE18FindGreaterOrEqualEPKc.exit.thread.i
  %arrayidx.i.i = getelementptr inbounds i8, ptr %atomic-temp.i.0.i.i.i.i, i64 8
  %11 = load ptr, ptr %compare_.i.i, align 8
  %vtable.i4.i = load ptr, ptr %11, align 8
  %vfn.i.i = getelementptr inbounds i8, ptr %vtable.i4.i, i64 8
  %12 = load ptr, ptr %vfn.i.i, align 8
  %call.i.i = call noundef i32 %12(ptr noundef nonnull align 8 dereferenceable(8) %11, ptr noundef %key, ptr noundef nonnull %arrayidx.i.i)
  %cmp.i.i = icmp eq i32 %call.i.i, 0
  br i1 %cmp.i.i, label %_ZNK7rocksdb14InlineSkipListIRKNS_11MemTableRep13KeyComparatorEE8ContainsEPKc.exit, label %if.else.i

if.else.i:                                        ; preds = %land.lhs.true.i, %_ZNK7rocksdb14InlineSkipListIRKNS_11MemTableRep13KeyComparatorEE18FindGreaterOrEqualEPKc.exit.thread17.i
  br label %_ZNK7rocksdb14InlineSkipListIRKNS_11MemTableRep13KeyComparatorEE8ContainsEPKc.exit

_ZNK7rocksdb14InlineSkipListIRKNS_11MemTableRep13KeyComparatorEE8ContainsEPKc.exit: ; preds = %land.lhs.true.i, %if.else.i
  %retval.0.i = phi i1 [ false, %if.else.i ], [ true, %land.lhs.true.i ]
  ret i1 %retval.0.i
}